#include <math.h>
#include <stdio.h>
#include <stdlib.h>
#include <string.h>


   int main()
{
    int a[100],i,temp,n;
    scanf ("%d\n",&n);
    for (i=1;i<=n;i++)
    {
    scanf("%d",&a[i]);    
    }
    for(i=1;i<=n/2;i++)
    {
       temp=a[i];
       a[i]=a[n+1-i];
       a[n+1-i]=temp;   
    }
    for(i=1;i<n;i++)
    {
    printf("%d ",a[i]);                 
    }
    printf("%d",a[n]);
    return 0;
}